target datalayout = "e-m:e-p270:32:32-p271:32:32-p272:64:64-i64:64-i128:128-f80:128-n8:16:32:64-S128"
target triple = "x86_64-pc-linux-gnu"

%struct.ident_t = type { i32, i32, i32, i32, ptr }
%"class.ncnn::Mat" = type { ptr, ptr, i64, i32, ptr, i32, i32, i32, i32, i32, i64 }

@1 = private unnamed_addr constant %struct.ident_t { i32 0, i32 514, i32 0, i32 22, ptr @0 }, align 8

; Function Attrs: alwaysinline mustprogress nounwind uwtable
define linkonce_odr hidden noundef ptr @_ZNK4ncnn3MatcvPKT_IfEEv(ptr noundef nonnull align 8 dereferenceable(72) %0) #3 comdat align 2 {
  %2 = alloca ptr, align 8
  store ptr %0, ptr %2, align 8, !tbaa !43
  %3 = load ptr, ptr %2, align 8
  %4 = getelementptr inbounds nuw %"class.ncnn::Mat", ptr %3, i32 0, i32 0
  %5 = load ptr, ptr %4, align 8, !tbaa !51
  ret ptr %5
}

; Function Attrs: alwaysinline mustprogress nounwind uwtable
define linkonce_odr hidden noundef ptr @_ZNK4ncnn3MatcvPKT_IiEEv(ptr noundef nonnull align 8 dereferenceable(72) %0) #3 comdat align 2 {
  %2 = alloca ptr, align 8
  store ptr %0, ptr %2, align 8, !tbaa !43
  %3 = load ptr, ptr %2, align 8
  %4 = getelementptr inbounds nuw %"class.ncnn::Mat", ptr %3, i32 0, i32 0
  %5 = load ptr, ptr %4, align 8, !tbaa !51
  ret ptr %5
}

; Function Attrs: alwaysinline mustprogress nounwind uwtable
define linkonce_odr hidden noundef ptr @_ZN4ncnn3Mat3rowEi(ptr noundef nonnull align 8 dereferenceable(72) %0, i32 noundef %1) #3 comdat align 2 {
  %3 = alloca ptr, align 8
  %4 = alloca i32, align 4
  store ptr %0, ptr %3, align 8, !tbaa !43
  store i32 %1, ptr %4, align 4, !tbaa !46
  %5 = load ptr, ptr %3, align 8
  %6 = getelementptr inbounds nuw %"class.ncnn::Mat", ptr %5, i32 0, i32 0
  %7 = load ptr, ptr %6, align 8, !tbaa !51
  %8 = getelementptr inbounds nuw %"class.ncnn::Mat", ptr %5, i32 0, i32 6
  %9 = load i32, ptr %8, align 4, !tbaa !57
  %10 = sext i32 %9 to i64
  %11 = load i32, ptr %4, align 4, !tbaa !46
  %12 = sext i32 %11 to i64
  %13 = mul i64 %10, %12
  %14 = getelementptr inbounds nuw %"class.ncnn::Mat", ptr %5, i32 0, i32 2
  %15 = load i64, ptr %14, align 8, !tbaa !53
  %16 = mul i64 %13, %15
  %17 = getelementptr inbounds nuw i8, ptr %7, i64 %16
  ret ptr %17
}

; Function Attrs: alwaysinline norecurse nounwind uwtable
define internal void @_ZN4ncnnL5embedERKNS_3MatES2_S2_RS0_iRKNS_6OptionE.omp_outlined(ptr noalias noundef %0, ptr noalias noundef %1, ptr noundef nonnull align 4 dereferenceable(4) %2, ptr noundef nonnull align 8 dereferenceable(72) %3, ptr noundef nonnull align 8 dereferenceable(72) %4, ptr noundef nonnull align 4 dereferenceable(4) %5, ptr noundef nonnull align 8 dereferenceable(72) %6, ptr noundef nonnull align 4 dereferenceable(4) %7, ptr noundef nonnull align 8 dereferenceable(8) %8) #9 {
  %10 = alloca ptr, align 8
  %11 = alloca ptr, align 8
  %12 = alloca ptr, align 8
  %13 = alloca ptr, align 8
  %14 = alloca ptr, align 8
  %15 = alloca ptr, align 8
  %16 = alloca ptr, align 8
  %17 = alloca ptr, align 8
  %18 = alloca ptr, align 8
  %19 = alloca ptr, align 8
  %20 = alloca ptr, align 8
  %21 = alloca ptr, align 8
  %22 = alloca i32, align 4
  %23 = alloca i32, align 4
  %24 = alloca i32, align 4
  %25 = alloca i32, align 4
  %26 = alloca i32, align 4
  %27 = alloca i32, align 4
  %28 = alloca i32, align 4
  %29 = alloca i32, align 4
  %30 = alloca i32, align 4
  %31 = alloca ptr, align 8
  %32 = alloca i32, align 4
  %33 = alloca ptr, align 8
  %34 = alloca i32, align 4
  store ptr %0, ptr %10, align 8, !tbaa !67
  store ptr %1, ptr %11, align 8, !tbaa !67
  store ptr %2, ptr %12, align 8, !tbaa !67
  store ptr %3, ptr %13, align 8, !tbaa !43
  store ptr %4, ptr %14, align 8, !tbaa !43
  store ptr %5, ptr %15, align 8, !tbaa !67
  store ptr %6, ptr %16, align 8, !tbaa !43
  store ptr %7, ptr %17, align 8, !tbaa !67
  store ptr %8, ptr %18, align 8, !tbaa !68
  %35 = load ptr, ptr %12, align 8, !tbaa !67
  %36 = load ptr, ptr %13, align 8, !tbaa !43
  %37 = load ptr, ptr %14, align 8, !tbaa !43
  %38 = load ptr, ptr %15, align 8, !tbaa !67
  %39 = load ptr, ptr %16, align 8, !tbaa !43
  %40 = load ptr, ptr %17, align 8, !tbaa !67
  %41 = load ptr, ptr %18, align 8, !tbaa !68
  store ptr %36, ptr %19, align 8
  store ptr %37, ptr %20, align 8
  store ptr %39, ptr %21, align 8
  call void @llvm.lifetime.start.p0(i64 4, ptr %22) #10
  call void @llvm.lifetime.start.p0(i64 4, ptr %23) #10
  %42 = load i32, ptr %35, align 4, !tbaa !46
  store i32 %42, ptr %23, align 4, !tbaa !46
  call void @llvm.lifetime.start.p0(i64 4, ptr %24) #10
  %43 = load i32, ptr %23, align 4, !tbaa !46
  %44 = sub nsw i32 %43, 0
  %45 = sdiv i32 %44, 1
  %46 = sub nsw i32 %45, 1
  store i32 %46, ptr %24, align 4, !tbaa !46
  call void @llvm.lifetime.start.p0(i64 4, ptr %25) #10
  store i32 0, ptr %25, align 4, !tbaa !46
  call void @llvm.lifetime.end.p0(i64 4, ptr %25) #10
  %47 = load i32, ptr %23, align 4, !tbaa !46
  %48 = icmp slt i32 0, %47
  br i1 %48, label %49, label %142

49:                                               ; preds = %9
  call void @llvm.lifetime.start.p0(i64 4, ptr %26) #10
  store i32 0, ptr %26, align 4, !tbaa !46
  call void @llvm.lifetime.start.p0(i64 4, ptr %27) #10
  %50 = load i32, ptr %24, align 4, !tbaa !46
  store i32 %50, ptr %27, align 4, !tbaa !46
  call void @llvm.lifetime.start.p0(i64 4, ptr %28) #10
  store i32 1, ptr %28, align 4, !tbaa !46
  call void @llvm.lifetime.start.p0(i64 4, ptr %29) #10
  store i32 0, ptr %29, align 4, !tbaa !46
  call void @llvm.lifetime.start.p0(i64 4, ptr %30) #10
  %51 = load ptr, ptr %10, align 8
  %52 = load i32, ptr %51, align 4, !tbaa !46
  call void @__kmpc_for_static_init_4(ptr @1, i32 %52, i32 34, ptr %29, ptr %26, ptr %27, ptr %28, i32 1, i32 1)
  %53 = load i32, ptr %27, align 4, !tbaa !46
  %54 = load i32, ptr %24, align 4, !tbaa !46
  %55 = icmp sgt i32 %53, %54
  br i1 %55, label %56, label %58

56:                                               ; preds = %49
  %57 = load i32, ptr %24, align 4, !tbaa !46
  br label %60

58:                                               ; preds = %49
  %59 = load i32, ptr %27, align 4, !tbaa !46
  br label %60

60:                                               ; preds = %58, %56
  %61 = phi i32 [ %57, %56 ], [ %59, %58 ]
  store i32 %61, ptr %27, align 4, !tbaa !46
  %62 = load i32, ptr %26, align 4, !tbaa !46
  store i32 %62, ptr %22, align 4, !tbaa !46
  br label %63

63:                                               ; preds = %135, %60
  %64 = load i32, ptr %22, align 4, !tbaa !46
  %65 = load i32, ptr %27, align 4, !tbaa !46
  %66 = icmp sle i32 %64, %65
  br i1 %66, label %68, label %67

67:                                               ; preds = %63
  br label %138

68:                                               ; preds = %63
  %69 = load i32, ptr %22, align 4, !tbaa !46
  %70 = mul nsw i32 %69, 1
  %71 = add nsw i32 0, %70
  store i32 %71, ptr %30, align 4, !tbaa !46
  call void @llvm.lifetime.start.p0(i64 8, ptr %31) #10
  %72 = load ptr, ptr %19, align 8, !tbaa !43
  %73 = load i32, ptr %30, align 4, !tbaa !46
  %74 = call noundef ptr @_ZN4ncnn3Mat3rowEi(ptr noundef nonnull align 8 dereferenceable(72) %72, i32 noundef %73)
  store ptr %74, ptr %31, align 8, !tbaa !64
  call void @llvm.lifetime.start.p0(i64 4, ptr %32) #10
  %75 = load ptr, ptr %20, align 8, !tbaa !43
  %76 = call noundef ptr @_ZNK4ncnn3MatcvPKT_IiEEv(ptr noundef nonnull align 8 dereferenceable(72) %75)
  %77 = load i32, ptr %30, align 4, !tbaa !46
  %78 = sext i32 %77 to i64
  %79 = getelementptr inbounds i32, ptr %76, i64 %78
  %80 = load i32, ptr %79, align 4, !tbaa !46
  store i32 %80, ptr %32, align 4, !tbaa !46
  %81 = load i32, ptr %32, align 4, !tbaa !46
  %82 = icmp slt i32 %81, 0
  br i1 %82, label %83, label %84

83:                                               ; preds = %68
  store i32 0, ptr %32, align 4, !tbaa !46
  br label %84

84:                                               ; preds = %83, %68
  %85 = load i32, ptr %32, align 4, !tbaa !46
  %86 = load i32, ptr %38, align 4, !tbaa !46
  %87 = icmp sge i32 %85, %86
  br i1 %87, label %88, label %91

88:                                               ; preds = %84
  %89 = load i32, ptr %38, align 4, !tbaa !46
  %90 = sub nsw i32 %89, 1
  store i32 %90, ptr %32, align 4, !tbaa !46
  br label %91

91:                                               ; preds = %88, %84
  call void @llvm.lifetime.start.p0(i64 8, ptr %33) #10
  %92 = load ptr, ptr %21, align 8, !tbaa !43
  %93 = call noundef ptr @_ZNK4ncnn3MatcvPKT_IfEEv(ptr noundef nonnull align 8 dereferenceable(72) %92)
  %94 = load i32, ptr %40, align 4, !tbaa !46
  %95 = load i32, ptr %32, align 4, !tbaa !46
  %96 = mul nsw i32 %94, %95
  %97 = sext i32 %96 to i64
  %98 = getelementptr inbounds float, ptr %93, i64 %97
  store ptr %98, ptr %33, align 8, !tbaa !64
  %99 = load ptr, ptr %41, align 8, !tbaa !64
  %100 = icmp ne ptr %99, null
  br i1 %100, label %101, label %127

101:                                              ; preds = %91
  call void @llvm.lifetime.start.p0(i64 4, ptr %34) #10
  store i32 0, ptr %34, align 4, !tbaa !46
  br label %102

102:                                              ; preds = %123, %101
  %103 = load i32, ptr %34, align 4, !tbaa !46
  %104 = load i32, ptr %40, align 4, !tbaa !46
  %105 = icmp slt i32 %103, %104
  br i1 %105, label %107, label %106

106:                                              ; preds = %102
  call void @llvm.lifetime.end.p0(i64 4, ptr %34) #10
  br label %126

107:                                              ; preds = %102
  %108 = load ptr, ptr %33, align 8, !tbaa !64
  %109 = load i32, ptr %34, align 4, !tbaa !46
  %110 = sext i32 %109 to i64
  %111 = getelementptr inbounds float, ptr %108, i64 %110
  %112 = load float, ptr %111, align 4, !tbaa !41
  %113 = load ptr, ptr %41, align 8, !tbaa !64
  %114 = load i32, ptr %34, align 4, !tbaa !46
  %115 = sext i32 %114 to i64
  %116 = getelementptr inbounds float, ptr %113, i64 %115
  %117 = load float, ptr %116, align 4, !tbaa !41
  %118 = fadd fast float %112, %117
  %119 = load ptr, ptr %31, align 8, !tbaa !64
  %120 = load i32, ptr %34, align 4, !tbaa !46
  %121 = sext i32 %120 to i64
  %122 = getelementptr inbounds float, ptr %119, i64 %121
  store float %118, ptr %122, align 4, !tbaa !41
  br label %123

123:                                              ; preds = %107
  %124 = load i32, ptr %34, align 4, !tbaa !46
  %125 = add nsw i32 %124, 1
  store i32 %125, ptr %34, align 4, !tbaa !46
  br label %102, !llvm.loop !78

126:                                              ; preds = %106
  br label %133

127:                                              ; preds = %91
  %128 = load ptr, ptr %31, align 8, !tbaa !64
  %129 = load ptr, ptr %33, align 8, !tbaa !64
  %130 = load i32, ptr %40, align 4, !tbaa !46
  %131 = sext i32 %130 to i64
  %132 = mul i64 %131, 4
  call void @llvm.memcpy.p0.p0.i64(ptr align 4 %128, ptr align 4 %129, i64 %132, i1 false)
  br label %133

133:                                              ; preds = %127, %126
  call void @llvm.lifetime.end.p0(i64 8, ptr %33) #10
  call void @llvm.lifetime.end.p0(i64 4, ptr %32) #10
  call void @llvm.lifetime.end.p0(i64 8, ptr %31) #10
  br label %134

134:                                              ; preds = %133
  br label %135

135:                                              ; preds = %134
  %136 = load i32, ptr %22, align 4, !tbaa !46
  %137 = add nsw i32 %136, 1
  store i32 %137, ptr %22, align 4, !tbaa !46
  br label %63

138:                                              ; preds = %67
  br label %139

139:                                              ; preds = %138
  %140 = load ptr, ptr %10, align 8
  %141 = load i32, ptr %140, align 4, !tbaa !46
  call void @__kmpc_for_static_fini(ptr @1, i32 %141)
  call void @llvm.lifetime.end.p0(i64 4, ptr %30) #10
  call void @llvm.lifetime.end.p0(i64 4, ptr %29) #10
  call void @llvm.lifetime.end.p0(i64 4, ptr %28) #10
  call void @llvm.lifetime.end.p0(i64 4, ptr %27) #10
  call void @llvm.lifetime.end.p0(i64 4, ptr %26) #10
  br label %142

142:                                              ; preds = %139, %9
  call void @llvm.lifetime.end.p0(i64 4, ptr %24) #10
  call void @llvm.lifetime.end.p0(i64 4, ptr %23) #10
  call void @llvm.lifetime.end.p0(i64 4, ptr %22) #10
  ret void
}