; Function Attrs: alwaysinline norecurse nounwind uwtable
define internal void @_ZN4ncnnL5embedERKNS_3MatES2_S2_RS0_iRKNS_6OptionE.omp_outlined(ptr noalias noundef readonly captures(none) %0, ptr noalias readnone captures(none) %1, ptr noundef nonnull readonly align 4 captures(none) dereferenceable(4) %2, ptr noundef nonnull readonly align 8 captures(none) dereferenceable(72) %3, ptr noundef nonnull readonly align 8 captures(none) dereferenceable(72) %4, ptr noundef nonnull readonly align 4 captures(none) dereferenceable(4) %5, ptr noundef nonnull readonly align 8 captures(none) dereferenceable(72) %6, ptr noundef nonnull readonly align 4 captures(none) dereferenceable(4) %7, ptr noundef nonnull readonly align 8 captures(none) dereferenceable(8) %8) #8 {
  %10 = alloca i32, align 4
  %11 = alloca i32, align 4
  %12 = alloca i32, align 4
  %13 = alloca i32, align 4
  %14 = load i32, ptr %2, align 4, !tbaa !50
  %15 = icmp sgt i32 %14, 0
  br i1 %15, label %16, label %83

16:                                               ; preds = %9
  %17 = add nsw i32 %14, -1
  call void @llvm.lifetime.start.p0(i64 4, ptr nonnull %10) #9
  store i32 0, ptr %10, align 4, !tbaa !50
  call void @llvm.lifetime.start.p0(i64 4, ptr nonnull %11) #9
  store i32 %17, ptr %11, align 4, !tbaa !50
  call void @llvm.lifetime.start.p0(i64 4, ptr nonnull %12) #9
  store i32 1, ptr %12, align 4, !tbaa !50
  call void @llvm.lifetime.start.p0(i64 4, ptr nonnull %13) #9
  store i32 0, ptr %13, align 4, !tbaa !50
  %18 = load i32, ptr %0, align 4, !tbaa !50
  call void @__kmpc_for_static_init_4(ptr nonnull @1, i32 %18, i32 34, ptr nonnull %13, ptr nonnull %10, ptr nonnull %11, ptr nonnull %12, i32 1, i32 1)
  %19 = load i32, ptr %11, align 4, !tbaa !50
  %20 = call i32 @llvm.smin.i32(i32 %19, i32 %17)
  store i32 %20, ptr %11, align 4, !tbaa !50
  %21 = load i32, ptr %10, align 4, !tbaa !50
  %.not39 = icmp sgt i32 %21, %20
  br i1 %.not39, label %._crit_edge, label %.lr.ph41

.lr.ph41:                                         ; preds = %16
  %22 = getelementptr inbounds nuw i8, ptr %3, i64 44
  %23 = getelementptr inbounds nuw i8, ptr %3, i64 16
  %24 = load ptr, ptr %8, align 8, !tbaa !51
  %25 = icmp eq ptr %24, null
  br i1 %25, label %.lr.ph41.split.preheader, label %.lr.ph41.split.us

.lr.ph41.split.preheader:                         ; preds = %.lr.ph41
  %26 = sext i32 %21 to i64
  br label %.lr.ph41.split

.lr.ph41.split.us:                                ; preds = %.lr.ph41
  %27 = load ptr, ptr %3, align 8, !tbaa !16
  %28 = load i32, ptr %22, align 4, !tbaa !42
  %29 = sext i32 %28 to i64
  %30 = load i64, ptr %23, align 8, !tbaa !39
  %factor.op.mul = mul i64 %30, %29
  %31 = load ptr, ptr %4, align 8, !tbaa !16
  %32 = load i32, ptr %5, align 4, !tbaa !50
  %33 = add nsw i32 %32, -1
  %34 = load ptr, ptr %6, align 8, !tbaa !16
  %35 = load i32, ptr %7, align 4, !tbaa !50
  %36 = icmp sgt i32 %35, 0
  br i1 %36, label %.preheader.us.us.preheader, label %._crit_edge

.preheader.us.us.preheader:                       ; preds = %.lr.ph41.split.us
  %37 = sext i32 %21 to i64
  %smax = call i32 @llvm.smax.i32(i32 %21, i32 %20)
  %38 = add nsw i32 %smax, 1
  %wide.trip.count = zext nneg i32 %35 to i64
  br label %.preheader.us.us

.preheader.us.us:                                 ; preds = %.preheader.us.us.preheader, %..loopexit_crit_edge.us.us
  %indvars.iv45 = phi i64 [ %37, %.preheader.us.us.preheader ], [ %indvars.iv.next46, %..loopexit_crit_edge.us.us ]
  %.reass.us = mul i64 %factor.op.mul, %indvars.iv45
  %39 = getelementptr inbounds nuw i8, ptr %27, i64 %.reass.us
  %40 = getelementptr inbounds i32, ptr %31, i64 %indvars.iv45
  %41 = load i32, ptr %40, align 4, !tbaa !50
  %spec.store.select.us.us = call i32 @llvm.smax.i32(i32 %41, i32 0)
  %.not36.us.us = icmp slt i32 %spec.store.select.us.us, %32
  %spec.select.us.us = select i1 %.not36.us.us, i32 %spec.store.select.us.us, i32 %33
  %42 = mul nsw i32 %35, %spec.select.us.us
  %43 = sext i32 %42 to i64
  %44 = getelementptr inbounds float, ptr %34, i64 %43
  br label %45

45:                                               ; preds = %.preheader.us.us, %45
  %indvars.iv = phi i64 [ 0, %.preheader.us.us ], [ %indvars.iv.next, %45 ]
  %46 = getelementptr inbounds nuw float, ptr %44, i64 %indvars.iv
  %47 = load float, ptr %46, align 4, !tbaa !46
  %48 = getelementptr inbounds nuw float, ptr %24, i64 %indvars.iv
  %49 = load float, ptr %48, align 4, !tbaa !46
  %50 = fadd fast float %49, %47
  %51 = getelementptr inbounds nuw float, ptr %39, i64 %indvars.iv
  store float %50, ptr %51, align 4, !tbaa !46
  %indvars.iv.next = add nuw nsw i64 %indvars.iv, 1
  %exitcond.not = icmp eq i64 %indvars.iv.next, %wide.trip.count
  br i1 %exitcond.not, label %..loopexit_crit_edge.us.us, label %45, !llvm.loop !62

..loopexit_crit_edge.us.us:                       ; preds = %45
  %indvars.iv.next46 = add nsw i64 %indvars.iv45, 1
  %lftr.wideiv = trunc i64 %indvars.iv.next46 to i32
  %exitcond48.not = icmp eq i32 %38, %lftr.wideiv
  br i1 %exitcond48.not, label %._crit_edge, label %.preheader.us.us

.lr.ph41.split:                                   ; preds = %.lr.ph41.split.preheader, %.loopexit
  %52 = phi i32 [ %20, %.lr.ph41.split.preheader ], [ %81, %.loopexit ]
  %indvars.iv54 = phi i64 [ %26, %.lr.ph41.split.preheader ], [ %indvars.iv.next55, %.loopexit ]
  %53 = load ptr, ptr %3, align 8, !tbaa !16
  %54 = load i32, ptr %22, align 4, !tbaa !42
  %55 = sext i32 %54 to i64
  %56 = mul nsw i64 %indvars.iv54, %55
  %57 = load i64, ptr %23, align 8, !tbaa !39
  %58 = mul i64 %56, %57
  %59 = getelementptr inbounds nuw i8, ptr %53, i64 %58
  %60 = load ptr, ptr %4, align 8, !tbaa !16
  %61 = getelementptr inbounds i32, ptr %60, i64 %indvars.iv54
  %62 = load i32, ptr %61, align 4, !tbaa !50
  %spec.store.select = call i32 @llvm.smax.i32(i32 %62, i32 0)
  %63 = load i32, ptr %5, align 4, !tbaa !50
  %.not36 = icmp slt i32 %spec.store.select, %63
  %64 = add nsw i32 %63, -1
  %spec.select = select i1 %.not36, i32 %spec.store.select, i32 %64
  %65 = load ptr, ptr %6, align 8, !tbaa !16
  %66 = load i32, ptr %7, align 4, !tbaa !50
  %67 = mul nsw i32 %66, %spec.select
  %68 = sext i32 %67 to i64
  %69 = getelementptr inbounds float, ptr %65, i64 %68
  %70 = load ptr, ptr %8, align 8, !tbaa !51
  %.not37 = icmp eq ptr %70, null
  br i1 %.not37, label %78, label %.preheader

.preheader:                                       ; preds = %.lr.ph41.split
  %71 = icmp sgt i32 %66, 0
  br i1 %71, label %.lr.ph.preheader, label %.loopexit

.lr.ph.preheader:                                 ; preds = %.preheader
  %wide.trip.count52 = zext nneg i32 %66 to i64
  br label %.lr.ph

.lr.ph:                                           ; preds = %.lr.ph.preheader, %.lr.ph
  %indvars.iv49 = phi i64 [ 0, %.lr.ph.preheader ], [ %indvars.iv.next50, %.lr.ph ]
  %72 = getelementptr inbounds nuw float, ptr %69, i64 %indvars.iv49
  %73 = load float, ptr %72, align 4, !tbaa !46
  %74 = getelementptr inbounds nuw float, ptr %70, i64 %indvars.iv49
  %75 = load float, ptr %74, align 4, !tbaa !46
  %76 = fadd fast float %75, %73
  %77 = getelementptr inbounds nuw float, ptr %59, i64 %indvars.iv49
  store float %76, ptr %77, align 4, !tbaa !46
  %indvars.iv.next50 = add nuw nsw i64 %indvars.iv49, 1
  %exitcond53.not = icmp eq i64 %indvars.iv.next50, %wide.trip.count52
  br i1 %exitcond53.not, label %.loopexit, label %.lr.ph, !llvm.loop !62

78:                                               ; preds = %.lr.ph41.split
  %79 = sext i32 %66 to i64
  %80 = shl nsw i64 %79, 2
  call void @llvm.memcpy.p0.p0.i64(ptr align 4 %59, ptr align 4 %69, i64 %80, i1 false)
  %.pre = load i32, ptr %11, align 4, !tbaa !50
  br label %.loopexit

.loopexit:                                        ; preds = %.lr.ph, %.preheader, %78
  %81 = phi i32 [ %52, %.preheader ], [ %.pre, %78 ], [ %52, %.lr.ph ]
  %indvars.iv.next55 = add nsw i64 %indvars.iv54, 1
  %82 = sext i32 %81 to i64
  %.not.not = icmp slt i64 %indvars.iv54, %82
  br i1 %.not.not, label %.lr.ph41.split, label %._crit_edge, !llvm.loop !63

._crit_edge:                                      ; preds = %..loopexit_crit_edge.us.us, %.loopexit, %.lr.ph41.split.us, %16
  call void @__kmpc_for_static_fini(ptr nonnull @1, i32 %18)
  call void @llvm.lifetime.end.p0(i64 4, ptr nonnull %13) #9
  call void @llvm.lifetime.end.p0(i64 4, ptr nonnull %12) #9
  call void @llvm.lifetime.end.p0(i64 4, ptr nonnull %11) #9
  call void @llvm.lifetime.end.p0(i64 4, ptr nonnull %10) #9
  br label %83

83:                                               ; preds = %._crit_edge, %9
  ret void
}